(lp0
S'http://www.indeed.com/rc/clk?jk=6b5e920bdd627e42'
p1
aS'http://www.indeed.com/rc/clk?jk=636d342617306182'
p2
aS'http://www.indeed.com/rc/clk?jk=f6d956d7f1404a93'
p3
aS'http://www.indeed.com/rc/clk?jk=8293c99fe6ff4510'
p4
aS'http://www.indeed.com/rc/clk?jk=392ea0d93230424c'
p5
aS'http://www.indeed.com/rc/clk?jk=3e0122d3f5ff4af4'
p6
aS'http://www.indeed.com/rc/clk?jk=9a5449d9792cd6ae'
p7
aS'http://www.indeed.com/rc/clk?jk=535a264fa58ea216'
p8
aS'http://www.indeed.com/rc/clk?jk=e41ba31a5c7cdbe6'
p9
aS'http://www.indeed.com/rc/clk?jk=7bc2087719c1dca7'
p10
aS'http://www.indeed.com/rc/clk?jk=2d7c6cc29c4555c8'
p11
aS'http://www.indeed.com/rc/clk?jk=de8696554cc71b22'
p12
aS'http://www.indeed.com/rc/clk?jk=119193f6d1bbdab6'
p13
aS'http://www.indeed.com/rc/clk?jk=dbf56289a237696e'
p14
aS'http://www.indeed.com/rc/clk?jk=b52da60e3b40bd2a'
p15
aS'http://www.indeed.com/rc/clk?jk=629d660ec8a6ca11'
p16
aS'http://www.indeed.com/rc/clk?jk=97f72c5f4f000d14'
p17
aS'http://www.indeed.com/rc/clk?jk=8d109117cbd2846d'
p18
aS'http://www.indeed.com/rc/clk?jk=8515706b6ba96d5f'
p19
aS'http://www.indeed.com/rc/clk?jk=67fb9100738e8540'
p20
aS'http://www.indeed.com/rc/clk?jk=ba4094b2853c9d3a'
p21
aS'http://www.indeed.com/rc/clk?jk=fa74513985e95f7c'
p22
aS'http://www.indeed.com/rc/clk?jk=3208be38c423ba1c'
p23
aS'http://www.indeed.com/rc/clk?jk=2675a2e916c99f09'
p24
aS'http://www.indeed.com/rc/clk?jk=abd0a55854d0c043'
p25
aS'http://www.indeed.com/rc/clk?jk=13056aa8bb8e784a'
p26
aS'http://www.indeed.com/rc/clk?jk=43d0e2027d993853'
p27
aS'http://www.indeed.com/rc/clk?jk=471f5415531ae29d'
p28
aS'http://www.indeed.com/rc/clk?jk=3df5ca6a6848b5a1'
p29
aS'http://www.indeed.com/rc/clk?jk=9ba899b4fd143f98'
p30
aS'http://www.indeed.com/rc/clk?jk=66f006580239cfbd'
p31
aS'http://www.indeed.com/rc/clk?jk=abc999cd2f16fe57'
p32
aS'http://www.indeed.com/rc/clk?jk=3850968329544357'
p33
aS'http://www.indeed.com/rc/clk?jk=80c78ac0df2ffd38'
p34
aS'http://www.indeed.com/rc/clk?jk=0d283da459c52bae'
p35
aS'http://www.indeed.com/rc/clk?jk=0c07623ce528829b'
p36
aS'http://www.indeed.com/rc/clk?jk=9393a240a3faafca'
p37
aS'http://www.indeed.com/rc/clk?jk=0240c739ff313647'
p38
aS'http://www.indeed.com/rc/clk?jk=625cc228238d47c4'
p39
aS'http://www.indeed.com/rc/clk?jk=8c37b1089092df78'
p40
aS'http://www.indeed.com/rc/clk?jk=72638421519a3f6b'
p41
aS'http://www.indeed.com/rc/clk?jk=1cec1592c2b08e0b'
p42
aS'http://www.indeed.com/rc/clk?jk=486b6733691deec1'
p43
aS'http://www.indeed.com/rc/clk?jk=eee9d9d26128f129'
p44
aS'http://www.indeed.com/rc/clk?jk=c4326c29aede391f'
p45
aS'http://www.indeed.com/rc/clk?jk=9a5449d9792cd6ae'
p46
aS'http://www.indeed.com/rc/clk?jk=9b88a227dbb84325'
p47
aS'http://www.indeed.com/rc/clk?jk=3df5ca6a6848b5a1'
p48
aS'http://www.indeed.com/rc/clk?jk=b25e5c1bfee33a6c'
p49
aS'http://www.indeed.com/rc/clk?jk=b0bd54921ffeece2'
p50
aS'http://www.indeed.com/rc/clk?jk=d124bd7cca585375'
p51
aS'http://www.indeed.com/rc/clk?jk=4032f5aa6f510249'
p52
aS'http://www.indeed.com/rc/clk?jk=874bf4a404c914af'
p53
aS'http://www.indeed.com/rc/clk?jk=d419c154af9336b5'
p54
aS'http://www.indeed.com/rc/clk?jk=2fb78a5531ab1514'
p55
aS'http://www.indeed.com/rc/clk?jk=7184136a3c64da79'
p56
aS'http://www.indeed.com/rc/clk?jk=9fd268f2dfc2e39a'
p57
aS'http://www.indeed.com/rc/clk?jk=e70f7a8a6f11e1e7'
p58
aS'http://www.indeed.com/rc/clk?jk=9a5449d9792cd6ae'
p59
aS'http://www.indeed.com/rc/clk?jk=a7c59cdae5acdce0'
p60
aS'http://www.indeed.com/rc/clk?jk=b0bd54921ffeece2'
p61
aS'http://www.indeed.com/rc/clk?jk=6d871f5ed338e678'
p62
aS'http://www.indeed.com/rc/clk?jk=75baeac828059004'
p63
aS'http://www.indeed.com/rc/clk?jk=1e05f8c189bd8703'
p64
aS'http://www.indeed.com/rc/clk?jk=aef29f115a17b6a4'
p65
aS'http://www.indeed.com/rc/clk?jk=b5d123706243cd89'
p66
aS'http://www.indeed.com/rc/clk?jk=34a78bca69842e3b'
p67
aS'http://www.indeed.com/rc/clk?jk=9ceae052da007eef'
p68
aS'http://www.indeed.com/rc/clk?jk=56c440c49020b5db'
p69
aS'http://www.indeed.com/rc/clk?jk=f7192ae02642bc65'
p70
aS'http://www.indeed.com/rc/clk?jk=1b3b3c3639f960b3'
p71
aS'http://www.indeed.com/rc/clk?jk=5d97dc9723f5ad19'
p72
aS'http://www.indeed.com/rc/clk?jk=8afb3674d821411a'
p73
aS'http://www.indeed.com/rc/clk?jk=4f66b924f249fd1f'
p74
aS'http://www.indeed.com/rc/clk?jk=09530ac51cc5cc81'
p75
aS'http://www.indeed.com/rc/clk?jk=10c5b6cb036a37dc'
p76
aS'http://www.indeed.com/rc/clk?jk=fa5b9dfc9e999b45'
p77
aS'http://www.indeed.com/rc/clk?jk=8905fd92f5758c32'
p78
aS'http://www.indeed.com/rc/clk?jk=9fe3a1061afc79de'
p79
aS'http://www.indeed.com/rc/clk?jk=48dc3003ca43b4be'
p80
aS'http://www.indeed.com/rc/clk?jk=2b8188a025204616'
p81
aS'http://www.indeed.com/rc/clk?jk=4bd9d3c21cf61221'
p82
aS'http://www.indeed.com/rc/clk?jk=d6a2e11c28ed346f'
p83
aS'http://www.indeed.com/rc/clk?jk=af8dd608825f6bb9'
p84
aS'http://www.indeed.com/rc/clk?jk=631c7b096e6f52ca'
p85
aS'http://www.indeed.com/rc/clk?jk=d896e963373a7e63'
p86
aS'http://www.indeed.com/rc/clk?jk=db36597891611a92'
p87
aS'http://www.indeed.com/rc/clk?jk=7f88d48126cdc792'
p88
aS'http://www.indeed.com/rc/clk?jk=b18870e31a445dac'
p89
aS'http://www.indeed.com/rc/clk?jk=2bdeb147cae4a7d0'
p90
aS'http://www.indeed.com/rc/clk?jk=55e22ffecb422768'
p91
aS'http://www.indeed.com/rc/clk?jk=98999f3b9f056879'
p92
aS'http://www.indeed.com/rc/clk?jk=9fe3a1061afc79de'
p93
aS'http://www.indeed.com/rc/clk?jk=da4412e0f36920a0'
p94
aS'http://www.indeed.com/rc/clk?jk=e94b8d57d3c5523d'
p95
aS'http://www.indeed.com/rc/clk?jk=1275afbb75e8ba1e'
p96
aS'http://www.indeed.com/rc/clk?jk=304735463378683d'
p97
aS'http://www.indeed.com/rc/clk?jk=e8350b6d2c7197e7'
p98
aS'http://www.indeed.com/rc/clk?jk=5d45e9d630741758'
p99
aS'http://www.indeed.com/rc/clk?jk=eee9d9d26128f129'
p100
aS'http://www.indeed.com/rc/clk?jk=cea8f18126997a51'
p101
aS'http://www.indeed.com/rc/clk?jk=afdfdd0621543553'
p102
aS'http://www.indeed.com/rc/clk?jk=8ab95be1aa909bd2'
p103
aS'http://www.indeed.com/rc/clk?jk=e8168f76da0b9a41'
p104
aS'http://www.indeed.com/rc/clk?jk=ae9c04d9b3ad308b'
p105
aS'http://www.indeed.com/rc/clk?jk=1275afbb75e8ba1e'
p106
aS'http://www.indeed.com/rc/clk?jk=f51aa6c40dd07549'
p107
aS'http://www.indeed.com/rc/clk?jk=e9926e55a9947289'
p108
aS'http://www.indeed.com/rc/clk?jk=d84a7685d6f1180d'
p109
aS'http://www.indeed.com/rc/clk?jk=50563270cb8ea6a8'
p110
aS'http://www.indeed.com/rc/clk?jk=65484b70283a512a'
p111
aS'http://www.indeed.com/rc/clk?jk=4190932e63cf8c3a'
p112
aS'http://www.indeed.com/rc/clk?jk=ddc58c8829a729cc'
p113
aS'http://www.indeed.com/rc/clk?jk=fa993f61f65ae21c'
p114
aS'http://www.indeed.com/rc/clk?jk=31acfb8c71b37315'
p115
aS'http://www.indeed.com/rc/clk?jk=beada03533dedf3a'
p116
aS'http://www.indeed.com/rc/clk?jk=be282f2418197cca'
p117
aS'http://www.indeed.com/rc/clk?jk=7e388c25baa821fa'
p118
aS'http://www.indeed.com/rc/clk?jk=81898de959719392'
p119
aS'http://www.indeed.com/rc/clk?jk=cca18cfcb47a1a47'
p120
aS'http://www.indeed.com/rc/clk?jk=f26ae7991a4b910c'
p121
aS'http://www.indeed.com/rc/clk?jk=77af9c4ac1e06c08'
p122
aS'http://www.indeed.com/rc/clk?jk=9746712c6a51eadc'
p123
aS'http://www.indeed.com/rc/clk?jk=b9ece4c7e1fd8698'
p124
aS'http://www.indeed.com/rc/clk?jk=5cc6cf5558b36957'
p125
aS'http://www.indeed.com/rc/clk?jk=39fc714f819bec85'
p126
aS'http://www.indeed.com/rc/clk?jk=d046fd8e2a5c853f'
p127
aS'http://www.indeed.com/rc/clk?jk=be8a1465ca13f296'
p128
aS'http://www.indeed.com/rc/clk?jk=8b4348eb9b645735'
p129
aS'http://www.indeed.com/rc/clk?jk=fa749447e261740f'
p130
aS'http://www.indeed.com/rc/clk?jk=6d72d415b68c1636'
p131
aS'http://www.indeed.com/rc/clk?jk=30eaf666fad897d8'
p132
aS'http://www.indeed.com/rc/clk?jk=1b25491e6822e5bd'
p133
aS'http://www.indeed.com/rc/clk?jk=fa74513985e95f7c'
p134
aS'http://www.indeed.com/rc/clk?jk=1b4a8ea29afbecbb'
p135
aS'http://www.indeed.com/rc/clk?jk=ec9f201cc9d5faea'
p136
aS'http://www.indeed.com/rc/clk?jk=1222d22afa4ef6bc'
p137
aS'http://www.indeed.com/rc/clk?jk=7b472b191dd84a12'
p138
aS'http://www.indeed.com/rc/clk?jk=69ed81fc0c8ef007'
p139
aS'http://www.indeed.com/rc/clk?jk=b47f58413afeb089'
p140
aS'http://www.indeed.com/rc/clk?jk=758ff93e94aecaa6'
p141
aS'http://www.indeed.com/rc/clk?jk=4b311fc5608d4517'
p142
aS'http://www.indeed.com/rc/clk?jk=24bfff71ff608c8e'
p143
aS'http://www.indeed.com/rc/clk?jk=65484b70283a512a'
p144
aS'http://www.indeed.com/rc/clk?jk=306a4268fa64f86f'
p145
aS'http://www.indeed.com/rc/clk?jk=2c24c06248b11062'
p146
aS'http://www.indeed.com/rc/clk?jk=c22e52d7519a1e0e'
p147
aS'http://www.indeed.com/rc/clk?jk=cc0f0aa74f9bddeb'
p148
aS'http://www.indeed.com/rc/clk?jk=fbe385e64696831c'
p149
aS'http://www.indeed.com/rc/clk?jk=29f0d7ca10d024c7'
p150
aS'http://www.indeed.com/rc/clk?jk=93de4635e1bfbb85'
p151
aS'http://www.indeed.com/rc/clk?jk=938dfc307d1cea4e'
p152
aS'http://www.indeed.com/rc/clk?jk=76d87f68cb98e99e'
p153
aS'http://www.indeed.com/rc/clk?jk=1aeaa9cf76f1a11b'
p154
aS'http://www.indeed.com/rc/clk?jk=c4c569ff5fd3fe6e'
p155
aS'http://www.indeed.com/rc/clk?jk=8b6989e904aa26e7'
p156
aS'http://www.indeed.com/rc/clk?jk=87b75233e2d54dc7'
p157
aS'http://www.indeed.com/rc/clk?jk=54a6979238ebcfb4'
p158
aS'http://www.indeed.com/rc/clk?jk=359d75f30d73bca1'
p159
aS'http://www.indeed.com/rc/clk?jk=4e6d747c8470498d'
p160
aS'http://www.indeed.com/rc/clk?jk=0673e91fa1a024db'
p161
aS'http://www.indeed.com/rc/clk?jk=6333d7263da15355'
p162
aS'http://www.indeed.com/rc/clk?jk=fe60ff730d93a89c'
p163
aS'http://www.indeed.com/rc/clk?jk=2a5d1cec0f8572c1'
p164
aS'http://www.indeed.com/rc/clk?jk=45195833e3adc87b'
p165
aS'http://www.indeed.com/rc/clk?jk=1b62f899d9d7a1e8'
p166
aS'http://www.indeed.com/rc/clk?jk=06cf7f47ebf7dc21'
p167
aS'http://www.indeed.com/rc/clk?jk=4e93e151e240eefd'
p168
aS'http://www.indeed.com/rc/clk?jk=ddbe2ae81cccfd61'
p169
aS'http://www.indeed.com/rc/clk?jk=6571d801d0ebad0d'
p170
aS'http://www.indeed.com/rc/clk?jk=627bef0483092248'
p171
aS'http://www.indeed.com/rc/clk?jk=26d07b696772b8dd'
p172
aS'http://www.indeed.com/rc/clk?jk=814cb0b8d3e59de3'
p173
aS'http://www.indeed.com/rc/clk?jk=b1892fc56422dcff'
p174
aS'http://www.indeed.com/rc/clk?jk=2724f45031df992f'
p175
aS'http://www.indeed.com/rc/clk?jk=1ff7ee9cdc7a8fec'
p176
aS'http://www.indeed.com/rc/clk?jk=e414af2ed66cb706'
p177
aS'http://www.indeed.com/rc/clk?jk=78e1115a9a8fc1ea'
p178
aS'http://www.indeed.com/rc/clk?jk=628fdb75964e4ea3'
p179
aS'http://www.indeed.com/rc/clk?jk=98999f3b9f056879'
p180
aS'http://www.indeed.com/rc/clk?jk=28348645ba4b6540'
p181
aS'http://www.indeed.com/rc/clk?jk=790db77715a64f01'
p182
aS'http://www.indeed.com/rc/clk?jk=cec30c9ee49a1647'
p183
aS'http://www.indeed.com/rc/clk?jk=bff9320611f082fb'
p184
aS'http://www.indeed.com/rc/clk?jk=0be9925936d1f6f3'
p185
aS'http://www.indeed.com/rc/clk?jk=006c6f516f0c6c1c'
p186
aS'http://www.indeed.com/rc/clk?jk=3578021730bae98f'
p187
aS'http://www.indeed.com/rc/clk?jk=35d9243142b81925'
p188
aS'http://www.indeed.com/rc/clk?jk=7753725015c6592d'
p189
aS'http://www.indeed.com/rc/clk?jk=422f3164e12fabc1'
p190
aS'http://www.indeed.com/rc/clk?jk=baa2a7260a980852'
p191
aS'http://www.indeed.com/rc/clk?jk=58922a845af49b88'
p192
aS'http://www.indeed.com/rc/clk?jk=e33da5ffeef15503'
p193
aS'http://www.indeed.com/rc/clk?jk=b6c400c66fc89815'
p194
aS'http://www.indeed.com/rc/clk?jk=b891e151e0317bd0'
p195
aS'http://www.indeed.com/rc/clk?jk=73df09d3cf893fcf'
p196
aS'http://www.indeed.com/rc/clk?jk=f7cf82e5d4f7b3e9'
p197
aS'http://www.indeed.com/rc/clk?jk=be5dcff968099820'
p198
aS'http://www.indeed.com/rc/clk?jk=1681a62947062779'
p199
aS'http://www.indeed.com/rc/clk?jk=29228d631b139efc'
p200
aS'http://www.indeed.com/rc/clk?jk=0c6a6fb236bf3713'
p201
aS'http://www.indeed.com/rc/clk?jk=b4258bfeeeb6d3d2'
p202
aS'http://www.indeed.com/rc/clk?jk=781a4246f8083c30'
p203
aS'http://www.indeed.com/rc/clk?jk=7c5c6b22e269de4d'
p204
aS'http://www.indeed.com/rc/clk?jk=06cf7f47ebf7dc21'
p205
aS'http://www.indeed.com/rc/clk?jk=71a5822a5f85a9c2'
p206
aS'http://www.indeed.com/rc/clk?jk=5c254bf50d3564ed'
p207
aS'http://www.indeed.com/rc/clk?jk=77590759ec78dada'
p208
aS'http://www.indeed.com/rc/clk?jk=57f27e30557cb424'
p209
aS'http://www.indeed.com/rc/clk?jk=067cb755b9666be6'
p210
aS'http://www.indeed.com/rc/clk?jk=41d12b020fbcd402'
p211
aS'http://www.indeed.com/rc/clk?jk=9a966d2bb9c0b59c'
p212
aS'http://www.indeed.com/rc/clk?jk=7fe979fed954184c'
p213
aS'http://www.indeed.com/rc/clk?jk=631c7b096e6f52ca'
p214
aS'http://www.indeed.com/rc/clk?jk=c71ef60ddccdde03'
p215
aS'http://www.indeed.com/rc/clk?jk=123cda579160d898'
p216
aS'http://www.indeed.com/rc/clk?jk=af01c345cc5d8deb'
p217
aS'http://www.indeed.com/rc/clk?jk=ca7f5db2163ca560'
p218
aS'http://www.indeed.com/rc/clk?jk=cb95d07a9f63c314'
p219
aS'http://www.indeed.com/rc/clk?jk=8ea199354fa813bb'
p220
aS'http://www.indeed.com/rc/clk?jk=f30ef4f0e51d1fb3'
p221
aS'http://www.indeed.com/rc/clk?jk=1574a00fdeee048f'
p222
aS'http://www.indeed.com/rc/clk?jk=f639ca9e9c39ce09'
p223
aS'http://www.indeed.com/rc/clk?jk=2615df8f2c465b92'
p224
aS'http://www.indeed.com/rc/clk?jk=c18ee4cda3d27e31'
p225
aS'http://www.indeed.com/rc/clk?jk=c0f2ac0777390938'
p226
aS'http://www.indeed.com/rc/clk?jk=37b42db46f0da349'
p227
aS'http://www.indeed.com/rc/clk?jk=9e29b97e89c8a1e8'
p228
aS'http://www.indeed.com/rc/clk?jk=ffbee5e6caabe8b0'
p229
aS'http://www.indeed.com/rc/clk?jk=0069d7c72580b194'
p230
aS'http://www.indeed.com/rc/clk?jk=e1c24daa37f18a94'
p231
aS'http://www.indeed.com/rc/clk?jk=fc344081b7ea1d96'
p232
aS'http://www.indeed.com/rc/clk?jk=ec98ba88d5c77be1'
p233
aS'http://www.indeed.com/rc/clk?jk=7377851f55709d66'
p234
aS'http://www.indeed.com/rc/clk?jk=dbf56289a237696e'
p235
aS'http://www.indeed.com/rc/clk?jk=212ed115af706c99'
p236
aS'http://www.indeed.com/rc/clk?jk=081b26a0bc8cb2fd'
p237
aS'http://www.indeed.com/rc/clk?jk=57dfc4c6e4f9b340'
p238
aS'http://www.indeed.com/rc/clk?jk=b87d6a4a24cd9d44'
p239
aS'http://www.indeed.com/rc/clk?jk=21d8263b2290967a'
p240
aS'http://www.indeed.com/rc/clk?jk=1de26c8d67425c0a'
p241
aS'http://www.indeed.com/rc/clk?jk=432849ca68bd1f4f'
p242
aS'http://www.indeed.com/rc/clk?jk=20da78e710b551a5'
p243
aS'http://www.indeed.com/rc/clk?jk=85dc55d01849e8c5'
p244
a.